; Function Attrs: mustprogress nounwind uwtable
define dso_local void @_ZN4llvm10SSAUpdater25RewriteUseAfterInsertionsERNS_3UseE(ptr noundef nonnull align 8 dereferenceable(56) %0, ptr noundef nonnull align 8 dereferenceable(32) %1) local_unnamed_addr #0 align 2 {
  %3 = getelementptr inbounds nuw i8, ptr %1, i64 24
  %4 = load ptr, ptr %3, align 8
  %5 = load i8, ptr %4, align 8
  %.not = icmp eq i8 %5, 84
  br i1 %.not, label %6, label %19

6:                                                ; preds = %2
  %7 = getelementptr inbounds i8, ptr %4, i64 -8
  %8 = load ptr, ptr %7, align 8
  %9 = ptrtoint ptr %1 to i64
  %10 = ptrtoint ptr %8 to i64
  %11 = sub i64 %9, %10
  %12 = lshr exact i64 %11, 5
  %13 = getelementptr inbounds nuw i8, ptr %4, i64 72
  %14 = load i32, ptr %13, align 8
  %15 = zext i32 %14 to i64
  %16 = getelementptr inbounds %"class.llvm::Use", ptr %8, i64 %15
  %17 = and i64 %12, 4294967295
  %18 = getelementptr inbounds ptr, ptr %16, i64 %17
  br label %21

19:                                               ; preds = %2
  %20 = getelementptr inbounds i8, ptr %4, i64 40
  br label %21

21:                                               ; preds = %19, %6
  %.sink11 = phi ptr [ %20, %19 ], [ %18, %6 ]
  %22 = load ptr, ptr %.sink11, align 8
  %23 = tail call noundef ptr @_ZN4llvm10SSAUpdater28GetValueAtEndOfBlockInternalEPNS_10BasicBlockE(ptr noundef nonnull align 8 dereferenceable(56) %0, ptr noundef %22)
  %24 = load ptr, ptr %1, align 8
  %.not.i = icmp eq ptr %24, null
  br i1 %.not.i, label %_ZN4llvm3Use14removeFromListEv.exit.i, label %25

25:                                               ; preds = %21
  %26 = getelementptr inbounds nuw i8, ptr %1, i64 8
  %27 = load ptr, ptr %26, align 8
  %28 = getelementptr inbounds nuw i8, ptr %1, i64 16
  %29 = load ptr, ptr %28, align 8
  store ptr %27, ptr %29, align 8
  %.not.i.i = icmp eq ptr %27, null
  br i1 %.not.i.i, label %_ZN4llvm3Use14removeFromListEv.exit.i, label %30

30:                                               ; preds = %25
  %31 = load ptr, ptr %28, align 8
  %32 = getelementptr inbounds nuw i8, ptr %27, i64 16
  store ptr %31, ptr %32, align 8
  br label %_ZN4llvm3Use14removeFromListEv.exit.i

_ZN4llvm3Use14removeFromListEv.exit.i:            ; preds = %30, %25, %21
  store ptr %23, ptr %1, align 8
  %.not4.i = icmp eq ptr %23, null
  br i1 %.not4.i, label %_ZN4llvm3Use3setEPNS_5ValueE.exit, label %33

33:                                               ; preds = %_ZN4llvm3Use14removeFromListEv.exit.i
  %34 = getelementptr inbounds nuw i8, ptr %23, i64 16
  %35 = load ptr, ptr %34, align 8
  %36 = getelementptr inbounds nuw i8, ptr %1, i64 8
  store ptr %35, ptr %36, align 8
  %.not.i.i.i = icmp eq ptr %35, null
  br i1 %.not.i.i.i, label %_ZN4llvm5Value6addUseERNS_3UseE.exit.i, label %37

37:                                               ; preds = %33
  %38 = getelementptr inbounds nuw i8, ptr %35, i64 16
  store ptr %36, ptr %38, align 8
  br label %_ZN4llvm5Value6addUseERNS_3UseE.exit.i

_ZN4llvm5Value6addUseERNS_3UseE.exit.i:           ; preds = %37, %33
  %39 = getelementptr inbounds nuw i8, ptr %1, i64 16
  store ptr %34, ptr %39, align 8
  store ptr %1, ptr %34, align 8
  br label %_ZN4llvm3Use3setEPNS_5ValueE.exit

_ZN4llvm3Use3setEPNS_5ValueE.exit:                ; preds = %_ZN4llvm3Use14removeFromListEv.exit.i, %_ZN4llvm5Value6addUseERNS_3UseE.exit.i
  ret void
}